; Function Attrs: mustprogress nofree norecurse nosync nounwind willreturn memory(argmem: readwrite) uwtable
define void @av_packet_move_ref(ptr noundef writeonly captures(none) initializes((0, 104)) %0, ptr noundef captures(none) %1) local_unnamed_addr #12 {
  tail call void @llvm.memcpy.p0.p0.i64(ptr noundef nonnull align 8 dereferenceable(104) %0, ptr noundef nonnull align 8 dereferenceable(104) %1, i64 104, i1 false), !tbaa.struct !51
  tail call void @llvm.memset.p0.i64(ptr noundef nonnull align 8 dereferenceable(104) %1, i8 0, i64 96, i1 false)
  %3 = getelementptr inbounds nuw i8, ptr %1, i64 8
  store i64 -9223372036854775808, ptr %3, align 8, !tbaa !4
  %4 = getelementptr inbounds nuw i8, ptr %1, i64 16
  store i64 -9223372036854775808, ptr %4, align 8, !tbaa !15
  %5 = getelementptr inbounds nuw i8, ptr %1, i64 72
  store i64 -1, ptr %5, align 8, !tbaa !16
  %6 = getelementptr inbounds nuw i8, ptr %1, i64 96
  store i64 4294967296, ptr %6, align 8
  ret void
}